; Function Attrs: mustprogress uwtable
define internal noundef range(i32 0, 2) i32 @_ZL46server_handshaker_factory_new_session_callbackP6ssl_stP14ssl_session_st(ptr noundef %0, ptr noundef %1) #3 personality ptr @__gxx_personality_v0 {
  %3 = alloca %"class.std::unique_ptr.17", align 8
  %4 = tail call ptr @SSL_get_SSL_CTX(ptr noundef %0)
  %5 = icmp eq ptr %4, null
  br i1 %5, label %_ZNSt10unique_ptrI14ssl_session_stN3tsi17SslSessionDeleterEED2Ev.exit, label %6

6:                                                ; preds = %2
  %7 = load i32, ptr @_ZL26g_ssl_ctx_ex_factory_index, align 4, !tbaa !21
  %8 = tail call ptr @SSL_CTX_get_ex_data(ptr noundef nonnull %4, i32 noundef %7)
  %9 = tail call ptr @SSL_get_servername(ptr noundef %0, i32 noundef 0)
  %10 = icmp eq ptr %9, null
  br i1 %10, label %_ZNSt10unique_ptrI14ssl_session_stN3tsi17SslSessionDeleterEED2Ev.exit, label %11

11:                                               ; preds = %6
  %12 = getelementptr inbounds nuw i8, ptr %8, i64 40
  %13 = load ptr, ptr %12, align 8, !tbaa !59
  store ptr %1, ptr %3, align 8, !tbaa !60
  invoke void @_ZN3tsi18SslSessionLRUCache3PutEPKcSt10unique_ptrI14ssl_session_stNS_17SslSessionDeleterEE(ptr noundef nonnull align 8 dereferenceable(104) %13, ptr noundef nonnull %9, ptr noundef nonnull %3)
          to label %14 unwind label %20

14:                                               ; preds = %11
  %15 = load ptr, ptr %3, align 8, !tbaa !60
  %.not.i = icmp eq ptr %15, null
  br i1 %.not.i, label %_ZNSt10unique_ptrI14ssl_session_stN3tsi17SslSessionDeleterEED2Ev.exit, label %16

16:                                               ; preds = %14
  invoke void @SSL_SESSION_free(ptr noundef nonnull %15)
          to label %_ZNSt10unique_ptrI14ssl_session_stN3tsi17SslSessionDeleterEED2Ev.exit unwind label %17

17:                                               ; preds = %16
  %18 = landingpad { ptr, i32 }
          catch ptr null
  %19 = extractvalue { ptr, i32 } %18, 0
  call void @__clang_call_terminate(ptr %19) #35
  unreachable

20:                                               ; preds = %11
  %21 = landingpad { ptr, i32 }
          cleanup
  call void @_ZNSt10unique_ptrI14ssl_session_stN3tsi17SslSessionDeleterEED2Ev(ptr noundef nonnull align 8 dereferenceable(8) %3) #32
  resume { ptr, i32 } %21

_ZNSt10unique_ptrI14ssl_session_stN3tsi17SslSessionDeleterEED2Ev.exit: ; preds = %16, %14, %6, %2
  %.0 = phi i32 [ 0, %2 ], [ 0, %6 ], [ 1, %14 ], [ 1, %16 ]
  ret i32 %.0
}